target datalayout = "e-m:e-p270:32:32-p271:32:32-p272:64:64-i64:64-i128:128-f80:128-n8:16:32:64-S128"
target triple = "x86_64-pc-linux-gnu"

%struct.H5_user_cb_state_t = type { %struct.H5E_user_cb_state_t }
%struct.H5E_user_cb_state_t = type { i32, %union.anon, ptr }
%union.anon = type { ptr }
%struct.H5VL_connector_t = type { ptr, i64, ptr, ptr }
%struct.H5VL_class_t = type { i32, i32, ptr, i32, i64, ptr, ptr, %struct.H5VL_info_class_t, %struct.H5VL_wrap_class_t, %struct.H5VL_attr_class_t, %struct.H5VL_dataset_class_t, %struct.H5VL_datatype_class_t, %struct.H5VL_file_class_t, %struct.H5VL_group_class_t, %struct.H5VL_link_class_t, %struct.H5VL_object_class_t, %struct.H5VL_introspect_class_t, %struct.H5VL_request_class_t, %struct.H5VL_blob_class_t, %struct.H5VL_token_class_t, ptr }
%struct.H5VL_info_class_t = type { i64, ptr, ptr, ptr, ptr, ptr }
%struct.H5VL_wrap_class_t = type { ptr, ptr, ptr, ptr, ptr }
%struct.H5VL_attr_class_t = type { ptr, ptr, ptr, ptr, ptr, ptr, ptr, ptr }
%struct.H5VL_dataset_class_t = type { ptr, ptr, ptr, ptr, ptr, ptr, ptr, ptr }
%struct.H5VL_datatype_class_t = type { ptr, ptr, ptr, ptr, ptr, ptr }
%struct.H5VL_file_class_t = type { ptr, ptr, ptr, ptr, ptr, ptr }
%struct.H5VL_group_class_t = type { ptr, ptr, ptr, ptr, ptr, ptr }
%struct.H5VL_link_class_t = type { ptr, ptr, ptr, ptr, ptr, ptr }
%struct.H5VL_object_class_t = type { ptr, ptr, ptr, ptr, ptr }
%struct.H5VL_introspect_class_t = type { ptr, ptr, ptr }
%struct.H5VL_request_class_t = type { ptr, ptr, ptr, ptr, ptr, ptr }
%struct.H5VL_blob_class_t = type { ptr, ptr, ptr, ptr }
%struct.H5VL_token_class_t = type { ptr, ptr, ptr }

@.str = private unnamed_addr constant [106 x i8] c"generated/home/dtcxzyw/WorkSpace/Projects/compilers/llvm-opt-benchmark/bench/hdf5/hdf5/src/H5VLcallback.c\00", align 1
@H5E_LIB_g = external global i64, align 8
@H5E_CANTSET_g = external global i64, align 8
@.str.2 = private unnamed_addr constant [37 x i8] c"preparation for user callback failed\00", align 1
@H5E_CANTRESTORE_g = external global i64, align 8
@H5E_VOL_g = external global i64, align 8
@H5VL_init_g = external global i8, align 1
@H5_libterm_g = external global i8, align 1
@__func__.H5VL__connector_str_to_info = private unnamed_addr constant [28 x i8] c"H5VL__connector_str_to_info\00", align 1
@H5E_CANTUNSERIALIZE_g = external global i64, align 8
@.str.16 = private unnamed_addr constant [33 x i8] c"can't deserialize connector info\00", align 1

; Function Attrs: nounwind uwtable
define i32 @H5VL__connector_str_to_info(ptr noundef %0, ptr noundef %1, ptr noundef %2) #0 {
  %4 = alloca i32, align 4
  %5 = alloca ptr, align 8
  %6 = alloca ptr, align 8
  %7 = alloca ptr, align 8
  %8 = alloca i32, align 4
  %9 = alloca i8, align 1
  %10 = alloca %struct.H5_user_cb_state_t, align 8
  %11 = alloca i32, align 4
  store ptr %0, ptr %5, align 8, !tbaa !50
  store ptr %1, ptr %6, align 8, !tbaa !11
  store ptr %2, ptr %7, align 8, !tbaa !42
  call void @llvm.lifetime.start.p0(i64 4, ptr %8) #8
  store i32 0, ptr %8, align 4, !tbaa !7
  call void @llvm.lifetime.start.p0(i64 1, ptr %9) #8
  store i8 0, ptr %9, align 1, !tbaa !9
  %12 = load i8, ptr @H5VL_init_g, align 1, !tbaa !9, !range !14, !noundef !15
  %13 = trunc i8 %12 to i1
  br i1 %13, label %18, label %14

14:                                               ; preds = %3
  %15 = load i8, ptr @H5_libterm_g, align 1, !tbaa !9, !range !14, !noundef !15
  %16 = trunc i8 %15 to i1
  %17 = xor i1 %16, true
  br label %18

18:                                               ; preds = %14, %3
  %19 = phi i1 [ true, %3 ], [ %17, %14 ]
  %20 = xor i1 %19, true
  %21 = xor i1 %20, true
  %22 = zext i1 %21 to i32
  %23 = sext i32 %22 to i64
  %24 = call i64 @llvm.expect.i64(i64 %23, i64 1)
  %25 = icmp ne i64 %24, 0
  br i1 %25, label %26, label %123

26:                                               ; preds = %18
  %27 = load ptr, ptr %5, align 8, !tbaa !50
  %28 = icmp ne ptr %27, null
  br i1 %28, label %29, label %119

29:                                               ; preds = %26
  %30 = load ptr, ptr %6, align 8, !tbaa !11
  %31 = getelementptr inbounds nuw %struct.H5VL_connector_t, ptr %30, i32 0, i32 0
  %32 = load ptr, ptr %31, align 8, !tbaa !16
  %33 = getelementptr inbounds nuw %struct.H5VL_class_t, ptr %32, i32 0, i32 7
  %34 = getelementptr inbounds nuw %struct.H5VL_info_class_t, ptr %33, i32 0, i32 5
  %35 = load ptr, ptr %34, align 8, !tbaa !51
  %36 = icmp ne ptr %35, null
  br i1 %36, label %37, label %116

37:                                               ; preds = %29
  call void @llvm.lifetime.start.p0(i64 24, ptr %10) #8
  %38 = call i32 @H5_user_cb_prepare(ptr noundef %10)
  %39 = icmp slt i32 %38, 0
  br i1 %39, label %40, label %59

40:                                               ; preds = %37
  br label %41

41:                                               ; preds = %40
  br label %42

42:                                               ; preds = %41
  br label %43

43:                                               ; preds = %42
  %44 = load i64, ptr @H5E_LIB_g, align 8, !tbaa !3
  %45 = load i64, ptr @H5E_CANTSET_g, align 8, !tbaa !3
  %46 = call i32 (ptr, ptr, i32, i64, i64, ptr, ...) @H5E_printf_stack(ptr noundef @.str, ptr noundef @__func__.H5VL__connector_str_to_info, i32 noundef 710, i64 noundef %44, i64 noundef %45, ptr noundef @.str.2)
  br label %47

47:                                               ; preds = %43
  br label %48

48:                                               ; preds = %47
  store i8 1, ptr %9, align 1, !tbaa !9
  %49 = load i8, ptr %9, align 1, !tbaa !9, !range !14, !noundef !15
  %50 = trunc i8 %49 to i1
  %51 = zext i1 %50 to i8
  store i8 %51, ptr %9, align 1, !tbaa !9
  br label %52

52:                                               ; preds = %48
  br label %53

53:                                               ; preds = %52
  br label %54

54:                                               ; preds = %53
  store i32 -1, ptr %8, align 4, !tbaa !7
  store i32 10, ptr %11, align 4
  br label %91

55:                                               ; No predecessors!
  br label %56

56:                                               ; preds = %55
  br label %57

57:                                               ; preds = %56
  br label %58

58:                                               ; preds = %57
  br label %59

59:                                               ; preds = %58, %37
  %60 = load ptr, ptr %6, align 8, !tbaa !11
  %61 = getelementptr inbounds nuw %struct.H5VL_connector_t, ptr %60, i32 0, i32 0
  %62 = load ptr, ptr %61, align 8, !tbaa !16
  %63 = getelementptr inbounds nuw %struct.H5VL_class_t, ptr %62, i32 0, i32 7
  %64 = getelementptr inbounds nuw %struct.H5VL_info_class_t, ptr %63, i32 0, i32 5
  %65 = load ptr, ptr %64, align 8, !tbaa !51
  %66 = load ptr, ptr %5, align 8, !tbaa !50
  %67 = load ptr, ptr %7, align 8, !tbaa !42
  %68 = call i32 %65(ptr noundef %66, ptr noundef %67)
  store i32 %68, ptr %8, align 4, !tbaa !7
  %69 = call i32 @H5_user_cb_restore(ptr noundef %10)
  %70 = icmp slt i32 %69, 0
  br i1 %70, label %71, label %90

71:                                               ; preds = %59
  br label %72

72:                                               ; preds = %71
  br label %73

73:                                               ; preds = %72
  br label %74

74:                                               ; preds = %73
  %75 = load i64, ptr @H5E_LIB_g, align 8, !tbaa !3
  %76 = load i64, ptr @H5E_CANTRESTORE_g, align 8, !tbaa !3
  %77 = call i32 (ptr, ptr, i32, i64, i64, ptr, ...) @H5E_printf_stack(ptr noundef @.str, ptr noundef @__func__.H5VL__connector_str_to_info, i32 noundef 714, i64 noundef %75, i64 noundef %76, ptr noundef @.str.2)
  br label %78

78:                                               ; preds = %74
  br label %79

79:                                               ; preds = %78
  store i8 1, ptr %9, align 1, !tbaa !9
  %80 = load i8, ptr %9, align 1, !tbaa !9, !range !14, !noundef !15
  %81 = trunc i8 %80 to i1
  %82 = zext i1 %81 to i8
  store i8 %82, ptr %9, align 1, !tbaa !9
  br label %83

83:                                               ; preds = %79
  br label %84

84:                                               ; preds = %83
  br label %85

85:                                               ; preds = %84
  store i32 -1, ptr %8, align 4, !tbaa !7
  store i32 10, ptr %11, align 4
  br label %91

86:                                               ; No predecessors!
  br label %87

87:                                               ; preds = %86
  br label %88

88:                                               ; preds = %87
  br label %89

89:                                               ; preds = %88
  br label %90

90:                                               ; preds = %89, %59
  store i32 0, ptr %11, align 4
  br label %91

91:                                               ; preds = %85, %54, %90
  call void @llvm.lifetime.end.p0(i64 24, ptr %10) #8
  %92 = load i32, ptr %11, align 4
  switch i32 %92, label %125 [
    i32 0, label %93
    i32 10, label %122
  ]

93:                                               ; preds = %91
  %94 = load i32, ptr %8, align 4, !tbaa !7
  %95 = icmp slt i32 %94, 0
  br i1 %95, label %96, label %115

96:                                               ; preds = %93
  br label %97

97:                                               ; preds = %96
  br label %98

98:                                               ; preds = %97
  br label %99

99:                                               ; preds = %98
  %100 = load i64, ptr @H5E_VOL_g, align 8, !tbaa !3
  %101 = load i64, ptr @H5E_CANTUNSERIALIZE_g, align 8, !tbaa !3
  %102 = call i32 (ptr, ptr, i32, i64, i64, ptr, ...) @H5E_printf_stack(ptr noundef @.str, ptr noundef @__func__.H5VL__connector_str_to_info, i32 noundef 716, i64 noundef %100, i64 noundef %101, ptr noundef @.str.16)
  br label %103

103:                                              ; preds = %99
  br label %104

104:                                              ; preds = %103
  store i8 1, ptr %9, align 1, !tbaa !9
  %105 = load i8, ptr %9, align 1, !tbaa !9, !range !14, !noundef !15
  %106 = trunc i8 %105 to i1
  %107 = zext i1 %106 to i8
  store i8 %107, ptr %9, align 1, !tbaa !9
  br label %108

108:                                              ; preds = %104
  br label %109

109:                                              ; preds = %108
  br label %110

110:                                              ; preds = %109
  store i32 -1, ptr %8, align 4, !tbaa !7
  br label %122

111:                                              ; No predecessors!
  br label %112

112:                                              ; preds = %111
  br label %113

113:                                              ; preds = %112
  br label %114

114:                                              ; preds = %113
  br label %115

115:                                              ; preds = %114, %93
  br label %118

116:                                              ; preds = %29
  %117 = load ptr, ptr %7, align 8, !tbaa !42
  store ptr null, ptr %117, align 8, !tbaa !42
  br label %118

118:                                              ; preds = %116, %115
  br label %121

119:                                              ; preds = %26
  %120 = load ptr, ptr %7, align 8, !tbaa !42
  store ptr null, ptr %120, align 8, !tbaa !42
  br label %121

121:                                              ; preds = %119, %118
  br label %122

122:                                              ; preds = %121, %91, %110
  br label %123

123:                                              ; preds = %122, %18
  %124 = load i32, ptr %8, align 4, !tbaa !7
  store i32 %124, ptr %4, align 4
  store i32 1, ptr %11, align 4
  br label %125

125:                                              ; preds = %123, %91
  call void @llvm.lifetime.end.p0(i64 1, ptr %9) #8
  call void @llvm.lifetime.end.p0(i64 4, ptr %8) #8
  %126 = load i32, ptr %4, align 4
  ret i32 %126
}