; Function Attrs: nounwind uwtable
define range(i32 -1, -2147483648) i32 @H5VL__connector_str_to_info(ptr noundef %0, ptr noundef readonly captures(none) %1, ptr noundef %2) local_unnamed_addr #0 {
  %4 = alloca %struct.H5_user_cb_state_t, align 8
  %5 = load i8, ptr @H5VL_init_g, align 1, !tbaa !33, !range !35, !noundef !36
  %6 = trunc nuw i8 %5 to i1
  %7 = load i8, ptr @H5_libterm_g, align 1, !range !35
  %8 = trunc nuw i8 %7 to i1
  %9 = xor i1 %8, true
  %10 = select i1 %6, i1 true, i1 %9
  br i1 %10, label %11, label %37, !prof !37

11:                                               ; preds = %3
  %.not = icmp eq ptr %0, null
  br i1 %.not, label %36, label %12

12:                                               ; preds = %11
  %13 = load ptr, ptr %1, align 8, !tbaa !7
  %14 = getelementptr inbounds nuw i8, ptr %13, i64 88
  %15 = load ptr, ptr %14, align 8, !tbaa !49
  %.not16 = icmp eq ptr %15, null
  br i1 %.not16, label %35, label %16

16:                                               ; preds = %12
  call void @llvm.lifetime.start.p0(i64 24, ptr nonnull %4) #7
  %17 = call i32 @H5_user_cb_prepare(ptr noundef nonnull %4) #7
  %18 = icmp slt i32 %17, 0
  br i1 %18, label %.thread, label %19

19:                                               ; preds = %16
  %20 = load ptr, ptr %1, align 8, !tbaa !7
  %21 = getelementptr inbounds nuw i8, ptr %20, i64 88
  %22 = load ptr, ptr %21, align 8, !tbaa !49
  %23 = call i32 %22(ptr noundef nonnull %0, ptr noundef %2) #7
  %24 = call i32 @H5_user_cb_restore(ptr noundef nonnull %4) #7
  %25 = icmp slt i32 %24, 0
  br i1 %25, label %.thread, label %29

.thread:                                          ; preds = %19, %16
  %H5E_CANTSET_g.sink = phi ptr [ @H5E_CANTSET_g, %16 ], [ @H5E_CANTRESTORE_g, %19 ]
  %.sink = phi i32 [ 710, %16 ], [ 714, %19 ]
  %26 = load i64, ptr @H5E_LIB_g, align 8, !tbaa !3
  %27 = load i64, ptr %H5E_CANTSET_g.sink, align 8, !tbaa !3
  %28 = call i32 (ptr, ptr, i32, i64, i64, ptr, ...) @H5E_printf_stack(ptr noundef nonnull @.str, ptr noundef nonnull @__func__.H5VL__connector_str_to_info, i32 noundef %.sink, i64 noundef %26, i64 noundef %27, ptr noundef nonnull @.str.2) #7
  call void @llvm.lifetime.end.p0(i64 24, ptr nonnull %4) #7
  br label %37

29:                                               ; preds = %19
  call void @llvm.lifetime.end.p0(i64 24, ptr nonnull %4) #7
  %30 = icmp slt i32 %23, 0
  br i1 %30, label %31, label %37

31:                                               ; preds = %29
  %32 = load i64, ptr @H5E_VOL_g, align 8, !tbaa !3
  %33 = load i64, ptr @H5E_CANTUNSERIALIZE_g, align 8, !tbaa !3
  %34 = call i32 (ptr, ptr, i32, i64, i64, ptr, ...) @H5E_printf_stack(ptr noundef nonnull @.str, ptr noundef nonnull @__func__.H5VL__connector_str_to_info, i32 noundef 716, i64 noundef %32, i64 noundef %33, ptr noundef nonnull @.str.16) #7
  br label %37

35:                                               ; preds = %12
  store ptr null, ptr %2, align 8, !tbaa !40
  br label %37

36:                                               ; preds = %11
  store ptr null, ptr %2, align 8, !tbaa !40
  br label %37

37:                                               ; preds = %.thread, %29, %3, %36, %35, %31
  %.014 = phi i32 [ %23, %29 ], [ -1, %31 ], [ 0, %35 ], [ 0, %36 ], [ 0, %3 ], [ -1, %.thread ]
  ret i32 %.014
}